target datalayout = "e-m:e-p270:32:32-p271:32:32-p272:64:64-i64:64-i128:128-f80:128-n8:16:32:64-S128"
target triple = "x86_64-pc-linux-gnu"

%struct._php_stream = type { ptr, ptr, %struct._php_stream_filter_chain, %struct._php_stream_filter_chain, ptr, ptr, %struct._zval_struct, i16, [16 x i8], i32, ptr, ptr, ptr, ptr, i64, ptr, i64, i64, i64, i64, ptr }
%struct._php_stream_filter_chain = type { ptr, ptr, ptr }
%struct._zval_struct = type { %union._zend_value, %union.anon, %union.anon.2 }
%union._zend_value = type { i64 }
%union.anon = type { i32 }
%union.anon.2 = type { i32 }
%struct.dirent = type { i64, i64, i16, i8, [256 x i8] }
%struct._php_stream_dirent = type { [4096 x i8], i8 }

; Function Attrs: nounwind uwtable
define internal i64 @php_plain_files_dirstream_read(ptr noundef %0, ptr noundef %1, i64 noundef %2) #0 {
  %4 = alloca i64, align 8
  %5 = alloca ptr, align 8
  %6 = alloca ptr, align 8
  %7 = alloca i64, align 8
  %8 = alloca ptr, align 8
  %9 = alloca ptr, align 8
  %10 = alloca ptr, align 8
  %11 = alloca i32, align 4
  %12 = alloca i64, align 8
  store ptr %0, ptr %5, align 8, !tbaa !18
  store ptr %1, ptr %6, align 8, !tbaa !4
  store i64 %2, ptr %7, align 8, !tbaa !52
  call void @llvm.lifetime.start.p0(i64 8, ptr %8) #13
  %13 = load ptr, ptr %5, align 8, !tbaa !18
  %14 = getelementptr inbounds nuw %struct._php_stream, ptr %13, i32 0, i32 1
  %15 = load ptr, ptr %14, align 8, !tbaa !20
  store ptr %15, ptr %8, align 8, !tbaa !74
  call void @llvm.lifetime.start.p0(i64 8, ptr %9) #13
  call void @llvm.lifetime.start.p0(i64 8, ptr %10) #13
  %16 = load ptr, ptr %6, align 8, !tbaa !4
  store ptr %16, ptr %10, align 8, !tbaa !86
  %17 = load i64, ptr %7, align 8, !tbaa !52
  %18 = icmp ne i64 %17, 4097
  br i1 %18, label %19, label %20

19:                                               ; preds = %3
  store i64 -1, ptr %4, align 8
  store i32 1, ptr %11, align 4
  br label %55

20:                                               ; preds = %3
  %21 = load ptr, ptr %8, align 8, !tbaa !74
  %22 = call ptr @readdir(ptr noundef %21)
  store ptr %22, ptr %9, align 8, !tbaa !88
  %23 = load ptr, ptr %9, align 8, !tbaa !88
  %24 = icmp ne ptr %23, null
  br i1 %24, label %25, label %54

25:                                               ; preds = %20
  call void @llvm.lifetime.start.p0(i64 8, ptr %12) #13
  %26 = load ptr, ptr %9, align 8, !tbaa !88
  %27 = getelementptr inbounds nuw %struct.dirent, ptr %26, i32 0, i32 4
  %28 = getelementptr inbounds [256 x i8], ptr %27, i64 0, i64 0
  %29 = call i64 @strlen(ptr noundef %28) #14
  store i64 %29, ptr %12, align 8, !tbaa !52
  %30 = load i64, ptr %12, align 8, !tbaa !52
  %31 = icmp uge i64 %30, 4096
  %32 = xor i1 %31, true
  %33 = xor i1 %32, true
  %34 = zext i1 %33 to i32
  %35 = sext i32 %34 to i64
  %36 = call i64 @llvm.expect.i64(i64 %35, i64 0)
  %37 = icmp ne i64 %36, 0
  br i1 %37, label %38, label %39

38:                                               ; preds = %25
  store i64 -1, ptr %4, align 8
  store i32 1, ptr %11, align 4
  br label %53

39:                                               ; preds = %25
  %40 = load ptr, ptr %10, align 8, !tbaa !86
  %41 = getelementptr inbounds nuw %struct._php_stream_dirent, ptr %40, i32 0, i32 0
  %42 = getelementptr inbounds [4096 x i8], ptr %41, i64 0, i64 0
  %43 = load ptr, ptr %9, align 8, !tbaa !88
  %44 = getelementptr inbounds nuw %struct.dirent, ptr %43, i32 0, i32 4
  %45 = getelementptr inbounds [256 x i8], ptr %44, i64 0, i64 0
  %46 = load i64, ptr %12, align 8, !tbaa !52
  %47 = add i64 %46, 1
  call void @llvm.memcpy.p0.p0.i64(ptr align 1 %42, ptr align 1 %45, i64 %47, i1 false)
  %48 = load ptr, ptr %9, align 8, !tbaa !88
  %49 = getelementptr inbounds nuw %struct.dirent, ptr %48, i32 0, i32 3
  %50 = load i8, ptr %49, align 2, !tbaa !90
  %51 = load ptr, ptr %10, align 8, !tbaa !86
  %52 = getelementptr inbounds nuw %struct._php_stream_dirent, ptr %51, i32 0, i32 1
  store i8 %50, ptr %52, align 1, !tbaa !92
  store i64 4097, ptr %4, align 8
  store i32 1, ptr %11, align 4
  br label %53

53:                                               ; preds = %39, %38
  call void @llvm.lifetime.end.p0(i64 8, ptr %12) #13
  br label %55

54:                                               ; preds = %20
  store i64 0, ptr %4, align 8
  store i32 1, ptr %11, align 4
  br label %55

55:                                               ; preds = %54, %53, %19
  call void @llvm.lifetime.end.p0(i64 8, ptr %10) #13
  call void @llvm.lifetime.end.p0(i64 8, ptr %9) #13
  call void @llvm.lifetime.end.p0(i64 8, ptr %8) #13
  %56 = load i64, ptr %4, align 8
  ret i64 %56
}