; Function Attrs: nounwind uwtable
define internal range(i64 -1, 4098) i64 @php_plain_files_dirstream_read(ptr noundef readonly captures(none) %0, ptr noundef writeonly captures(none) %1, i64 noundef %2) #3 {
  %.not = icmp eq i64 %2, 4097
  br i1 %.not, label %4, label %17

4:                                                ; preds = %3
  %5 = getelementptr inbounds nuw i8, ptr %0, i64 8
  %6 = load ptr, ptr %5, align 8, !tbaa !20
  %7 = tail call ptr @readdir(ptr noundef %6) #17
  %.not14 = icmp eq ptr %7, null
  br i1 %.not14, label %17, label %8

8:                                                ; preds = %4
  %9 = getelementptr inbounds nuw i8, ptr %7, i64 19
  %10 = tail call i64 @strlen(ptr noundef nonnull dereferenceable(1) %9) #16
  %11 = icmp ugt i64 %10, 4095
  br i1 %11, label %17, label %12, !prof !62

12:                                               ; preds = %8
  %13 = add nuw nsw i64 %10, 1
  tail call void @llvm.memcpy.p0.p0.i64(ptr noundef nonnull align 1 dereferenceable(1) %1, ptr noundef nonnull align 1 dereferenceable(1) %9, i64 %13, i1 false)
  %14 = getelementptr inbounds nuw i8, ptr %7, i64 18
  %15 = load i8, ptr %14, align 2, !tbaa !63
  %16 = getelementptr inbounds nuw i8, ptr %1, i64 4096
  store i8 %15, ptr %16, align 1, !tbaa !65
  br label %17

17:                                               ; preds = %4, %12, %8, %3
  %.0 = phi i64 [ -1, %3 ], [ 4097, %12 ], [ -1, %8 ], [ 0, %4 ]
  ret i64 %.0
}